(lp0
S'Sep 11, 2015'
p1
aS'Oct 02, 2015'
p2
aS'Oct 23, 2015'
p3
aS'Nov 13, 2015'
p4
aS'Dec 04, 2015'
p5
aS'Dec 30, 2015'
p6
aS'Jan 22, 2016'
p7
aS'Feb 12, 2016'
p8
aS'Mar 07, 2016'
p9
aS'Mar 30, 2016'
p10
aS'Apr 20, 2016'
p11
aS'May 12, 2016'
p12
aS'Jun 06, 2016'
p13
aS'Jun 27, 2016'
p14
aS'Jul 18, 2016'
p15
aS'Aug 08, 2016'
p16
aS'Aug 30, 2016'
p17
aS'Sep 20, 2016'
p18
aS'Oct 12, 2016'
p19
aS'Nov 02, 2016'
p20
aS'Nov 23, 2016'
p21
aS'Dec 14, 2016'
p22
aS'Jan 09, 2017'
p23
aS'Jan 30, 2017'
p24
aS'Feb 20, 2017'
p25
aS'Mar 13, 2017'
p26
aS'Apr 03, 2017'
p27
aS'Apr 26, 2017'
p28
aS'May 18, 2017'
p29
aS'Jun 12, 2017'
p30
aS'Jul 03, 2017'
p31
aS'Jul 24, 2017'
p32
aS'Aug 14, 2017'
p33
aS'Sep 05, 2017'
p34
aS'Sep 26, 2017'
p35
aS'Oct 18, 2017'
p36
aS'Nov 09, 2017'
p37
aS'Nov 30, 2017'
p38
aS'Dec 21, 2017'
p39
aS'Jan 16, 2018'
p40
aS'Feb 06, 2018'
p41
aS'Feb 27, 2018'
p42
aS'Mar 20, 2018'
p43
aS'Apr 12, 2018'
p44
aS'May 04, 2018'
p45
aS'May 30, 2018'
p46
aS'Jun 20, 2018'
p47
aS'Jul 11, 2018'
p48
aS'Aug 01, 2018'
p49
aS'Aug 22, 2018'
p50
aS'Sep 13, 2018'
p51
aS'Oct 05, 2018'
p52
aS'Oct 26, 2018'
p53
aS'Nov 16, 2018'
p54
aS'Dec 07, 2018'
p55
aS'Jan 04, 2019'
p56
aS'Jan 25, 2019'
p57
aS'Feb 15, 2019'
p58
aS'Mar 08, 2019'
p59
aS'Mar 29, 2019'
p60
aS'Apr 23, 2019'
p61
aS'May 16, 2019'
p62
aS'Jun 07, 2019'
p63
aS'Jul 01, 2019'
p64
aS'Jul 22, 2019'
p65
a.